; Function Attrs: mustprogress nounwind uwtable
define hidden noundef nonnull ptr @_ZN6hermes2vm7HadesGC6OldGen12FreelistCell5carveEj(ptr noundef nonnull align 4 dereferenceable(8) %this, i32 noundef %sz) local_unnamed_addr #4 align 2 {
entry:
  %boundary.i = alloca %"class.hermes::vm::CardTable::Boundary", align 8
  %bf.load.i.i = load i32, ptr %this, align 4
  %bf.clear.i.i = and i32 %bf.load.i.i, 16777215
  %sub = sub i32 %bf.clear.i.i, %sz
  %idx.ext = zext i32 %sub to i64
  %add.ptr = getelementptr inbounds i8, ptr %this, i64 %idx.ext
  %bf.lshr.i.i.i = and i32 %bf.load.i.i, -16777216
  %bf.value.i.i = and i32 %sub, 16777215
  %bf.set7.i.i = or disjoint i32 %bf.value.i.i, %bf.lshr.i.i.i
  store i32 %bf.set7.i.i, ptr %this, align 4
  %conv = zext i32 %sz to i64
  call void @llvm.lifetime.start.p0(i64 16, ptr nonnull %boundary.i)
  %add.ptr.i = getelementptr inbounds i8, ptr %add.ptr, i64 %conv
  %0 = ptrtoint ptr %add.ptr to i64
  %and.i.i.i = and i64 %0, -4194304
  %1 = inttoptr i64 %and.i.i.i to ptr
  %add.ptr.i.i = getelementptr inbounds i8, ptr %add.ptr, i64 -1
  %sub.ptr.lhs.cast.i.i.i = ptrtoint ptr %add.ptr.i.i to i64
  %sub.ptr.sub.i.i.i = sub i64 %sub.ptr.lhs.cast.i.i.i, %and.i.i.i
  %shr.i.i.i = ashr i64 %sub.ptr.sub.i.i.i, 9
  %add.i.i = add nsw i64 %shr.i.i.i, 1
  %shl.i.i.i = shl i64 %add.i.i, 9
  %add.ptr.i.i.i = getelementptr inbounds i8, ptr %1, i64 %shl.i.i.i
  store i64 %add.i.i, ptr %boundary.i, align 8
  %2 = getelementptr inbounds i8, ptr %boundary.i, i64 8
  store ptr %add.ptr.i.i.i, ptr %2, align 8
  %cmp.i = icmp ult ptr %add.ptr.i.i.i, %add.ptr.i
  br i1 %cmp.i, label %if.then.i, label %_ZN6hermes2vm7HadesGC11HeapSegment11setCellHeadEPKNS0_6GCCellEm.exit

if.then.i:                                        ; preds = %entry
  call void @_ZN6hermes2vm9CardTable16updateBoundariesEPNS1_8BoundaryEPKcS5_(ptr noundef nonnull align 1 dereferenceable(16384) %1, ptr noundef nonnull %boundary.i, ptr noundef nonnull %add.ptr, ptr noundef nonnull %add.ptr.i) #34
  br label %_ZN6hermes2vm7HadesGC11HeapSegment11setCellHeadEPKNS0_6GCCellEm.exit

_ZN6hermes2vm7HadesGC11HeapSegment11setCellHeadEPKNS0_6GCCellEm.exit: ; preds = %entry, %if.then.i
  call void @llvm.lifetime.end.p0(i64 16, ptr nonnull %boundary.i)
  ret ptr %add.ptr
}